; Function Attrs: nounwind uwtable
define range(i32 0, 34) i32 @FT_Done_FreeType(ptr noundef %0) local_unnamed_addr #0 {
  %.not = icmp eq ptr %0, null
  br i1 %.not, label %5, label %2

2:                                                ; preds = %1
  %3 = load ptr, ptr %0, align 8
  %4 = tail call i32 @FT_Done_Library(ptr noundef nonnull %0) #3
  tail call void @FT_Done_Memory(ptr noundef %3) #3
  br label %5

5:                                                ; preds = %1, %2
  %.0 = phi i32 [ 0, %2 ], [ 33, %1 ]
  ret i32 %.0
}